Certificate:
    Data:
        Version: 3 (0x2)
        Serial Number: 2 (0x2)
    Signature Algorithm: sha256WithRSAEncryption
        Issuer: C=US, ST=New Jersey, L=Toms River, O=reallyread.it, inc., OU=Engineering, CN=reallyread.it, inc. Development Certificate Authority/emailAddress=admin@readup.com
        Validity
            Not Before: Nov 14 22:25:58 2022 GMT
            Not After : Jan 22 22:25:58 2025 GMT
        Subject: C=US, ST=New Jersey, L=Toms River, O=reallyread.it, inc., OU=Engineering, CN=dev.readup.org, *.dev.readup.org
        Subject Public Key Info:
            Public Key Algorithm: rsaEncryption
                Public-Key: (2048 bit)
                Modulus:
                    00:95:d2:9b:c2:fd:13:2b:b1:1b:31:c6:3b:aa:c3:
                    71:39:cd:dc:b2:ee:76:cd:92:0d:99:a8:d5:a2:39:
                    f4:a8:47:21:fc:82:df:9b:b5:7d:c7:50:13:07:a0:
                    de:6b:80:18:7b:13:21:07:38:41:15:6c:58:59:89:
                    b3:71:d9:ff:c5:ed:b9:62:eb:2a:ae:82:76:a2:7b:
                    00:c3:2a:cc:6e:09:0f:0d:4b:bf:9b:ef:b6:97:7c:
                    9a:c2:f2:e7:b1:0b:2b:20:a5:f2:68:b5:06:a1:e2:
                    d8:60:25:91:29:f9:19:0c:32:cf:b1:1f:fe:88:b5:
                    40:9f:4c:5b:81:b4:29:d2:3d:ad:db:80:2f:df:51:
                    fa:0d:36:b3:c7:bd:a7:a7:fa:ce:0a:03:f9:6e:88:
                    29:50:d5:82:6b:2f:bd:69:1f:61:73:bf:26:b6:26:
                    43:23:c6:d6:46:42:94:4c:3c:a3:2f:bb:60:6b:09:
                    04:0e:12:f9:e5:36:0c:97:5d:bd:56:8c:47:b1:d4:
                    aa:ee:13:04:35:1b:ee:fd:95:cc:b8:e1:54:55:29:
                    fe:28:ce:bd:21:c1:62:f3:4e:22:9f:df:80:80:ea:
                    1e:90:04:fc:68:4d:22:2f:f8:01:e9:04:02:bb:61:
                    44:da:cf:51:cb:c0:dd:fb:09:a9:b5:09:ff:bd:c2:
                    f3:9d
                Exponent: 65537 (0x10001)
        X509v3 extensions:
            X509v3 Subject Key Identifier: 
                E7:EE:0B:73:5A:1B:A7:67:24:CE:79:A0:DA:1D:76:1B:07:2C:7C:F4
            X509v3 Authority Key Identifier: 
                keyid:89:D2:5B:CF:DB:DE:5B:4E:6C:73:8D:41:D1:4B:A7:A6:87:FB:41:31

            X509v3 Basic Constraints: 
                CA:FALSE
            X509v3 Key Usage: 
                Digital Signature, Key Encipherment
            X509v3 Subject Alternative Name: 
                DNS:dev.readup.org, DNS:*.dev.readup.org
            Netscape Comment: 
                OpenSSL Generated Certificate
            X509v3 Extended Key Usage: 
                TLS Web Server Authentication
    Signature Algorithm: sha256WithRSAEncryption
         04:11:7a:6f:7f:fc:f2:be:08:33:2a:b1:00:7c:b4:7f:3f:45:
         4d:0a:ad:2b:fc:65:99:10:89:d8:a7:e3:9f:6f:16:dd:f2:31:
         48:07:ca:dd:39:55:d7:78:00:b9:cd:3c:d6:9a:0b:e2:fe:b4:
         18:df:26:33:80:05:20:72:0c:3d:58:f2:58:d5:94:9f:38:3a:
         77:40:ee:90:81:4b:a0:41:5c:fd:ef:35:32:a8:53:8f:d7:6e:
         79:42:14:aa:82:67:4e:bd:2d:90:f9:4e:fa:22:6b:ee:7c:ea:
         90:d4:0a:4a:43:3e:ba:19:e1:a9:d5:a8:f9:0c:ae:42:f0:3b:
         0a:a4:f6:21:2b:a5:b5:69:7f:0f:7c:3e:6d:cc:9b:0b:6c:e6:
         b0:f5:da:7e:c7:8c:06:b5:b4:3b:c3:29:fb:ef:fb:8a:18:32:
         21:5b:a2:31:82:56:e5:6d:e2:be:2f:58:ee:6f:e9:dc:bd:26:
         48:07:c2:05:75:13:1e:dd:6d:20:6a:6c:e0:6d:ab:40:7b:01:
         42:43:c8:6c:17:6e:89:54:4b:87:ce:74:22:e4:87:15:74:42:
         14:4b:8e:b8:80:3b:77:c2:e6:ff:61:ba:6d:a7:56:d8:5c:49:
         69:0d:16:8c:32:6c:ed:52:ab:0f:69:05:ba:92:b4:ee:56:59:
         b9:c0:29:d1:36:1d:6c:22:1b:68:25:c0:04:fd:2a:c4:2e:46:
         9a:20:d8:98:3a:18:03:a1:c0:05:1c:1d:7d:c4:73:ed:d9:1d:
         d4:f5:2c:5a:a9:07:e1:94:41:ef:c9:4a:67:53:8e:ba:ce:c1:
         20:65:60:e6:dc:a7:80:ba:8d:d5:63:aa:ed:b1:00:20:e6:a7:
         f0:0b:e4:a5:0c:32:0d:7b:c1:3b:5c:08:c0:3d:ac:c4:35:a1:
         f1:31:e8:59:4b:91:d0:05:c7:66:0a:28:bf:82:f0:f0:09:c8:
         36:9c:41:4a:97:b8:ee:12:af:66:e9:e9:88:1e:82:5b:8d:cf:
         9f:8f:0c:9d:fb:76:bf:21:ad:67:77:3e:d6:7d:a0:fd:84:52:
         36:4d:c2:ab:6c:74:d0:10:5b:00:be:1b:20:dd:52:a8:03:c2:
         45:18:68:1d:f8:21:6e:8d:95:b5:1b:85:b9:fc:51:20:73:82:
         2e:95:b4:62:4a:f8:75:1c:55:59:d5:ed:22:bc:f2:3b:83:79:
         83:60:46:35:81:1e:16:2d:86:3a:8d:23:bb:7d:81:fe:d1:57:
         3f:f3:24:63:5a:63:ce:7e:26:31:32:18:a7:96:e6:9f:2c:7c:
         4b:3a:01:d8:d8:01:96:82:24:36:83:f7:96:33:b7:33:83:41:
         8e:c0:a7:e3:11:d0:be:9b
-----BEGIN CERTIFICATE-----
MIIFqzCCA5OgAwIBAgIBAjANBgkqhkiG9w0BAQsFADCBzDELMAkGA1UEBhMCVVMx
EzARBgNVBAgMCk5ldyBKZXJzZXkxEzARBgNVBAcMClRvbXMgUml2ZXIxHDAaBgNV
BAoME3JlYWxseXJlYWQuaXQsIGluYy4xFDASBgNVBAsMC0VuZ2luZWVyaW5nMT4w
PAYDVQQDDDVyZWFsbHlyZWFkLml0LCBpbmMuIERldmVsb3BtZW50IENlcnRpZmlj
YXRlIEF1dGhvcml0eTEfMB0GCSqGSIb3DQEJARYQYWRtaW5AcmVhZHVwLmNvbTAe
Fw0yMjExMTQyMjI1NThaFw0yNTAxMjIyMjI1NThaMIGWMQswCQYDVQQGEwJVUzET
MBEGA1UECAwKTmV3IEplcnNleTETMBEGA1UEBwwKVG9tcyBSaXZlcjEcMBoGA1UE
CgwTcmVhbGx5cmVhZC5pdCwgaW5jLjEUMBIGA1UECwwLRW5naW5lZXJpbmcxKTAn
BgNVBAMMIGRldi5yZWFkdXAub3JnLCAqLmRldi5yZWFkdXAub3JnMIIBIjANBgkq
hkiG9w0BAQEFAAOCAQ8AMIIBCgKCAQEAldKbwv0TK7EbMcY7qsNxOc3csu52zZIN
majVojn0qEch/ILfm7V9x1ATB6Dea4AYexMhBzhBFWxYWYmzcdn/xe25YusqroJ2
onsAwyrMbgkPDUu/m++2l3yawvLnsQsrIKXyaLUGoeLYYCWRKfkZDDLPsR/+iLVA
n0xbgbQp0j2t24Av31H6DTazx72np/rOCgP5bogpUNWCay+9aR9hc78mtiZDI8bW
RkKUTDyjL7tgawkEDhL55TYMl129VoxHsdSq7hMENRvu/ZXMuOFUVSn+KM69IcFi
804in9+AgOoekAT8aE0iL/gB6QQCu2FE2s9Ry8Dd+wmptQn/vcLznQIDAQABo4HL
MIHIMB0GA1UdDgQWBBTn7gtzWhunZyTOeaDaHXYbByx89DAfBgNVHSMEGDAWgBSJ
0lvP295bTmxzjUHRS6emh/tBMTAJBgNVHRMEAjAAMAsGA1UdDwQEAwIFoDArBgNV
HREEJDAigg5kZXYucmVhZHVwLm9yZ4IQKi5kZXYucmVhZHVwLm9yZzAsBglghkgB
hvhCAQ0EHxYdT3BlblNTTCBHZW5lcmF0ZWQgQ2VydGlmaWNhdGUwEwYDVR0lBAww
CgYIKwYBBQUHAwEwDQYJKoZIhvcNAQELBQADggIBAAQRem9//PK+CDMqsQB8tH8/
RU0KrSv8ZZkQidin459vFt3yMUgHyt05Vdd4ALnNPNaaC+L+tBjfJjOABSByDD1Y
8ljVlJ84OndA7pCBS6BBXP3vNTKoU4/XbnlCFKqCZ069LZD5Tvoia+586pDUCkpD
ProZ4anVqPkMrkLwOwqk9iErpbVpfw98Pm3Mmwts5rD12n7HjAa1tDvDKfvv+4oY
MiFbojGCVuVt4r4vWO5v6dy9JkgHwgV1Ex7dbSBqbOBtq0B7AUJDyGwXbolUS4fO
dCLkhxV0QhRLjriAO3fC5v9hum2nVthcSWkNFowybO1Sqw9pBbqStO5WWbnAKdE2
HWwiG2glwAT9KsQuRpog2Jg6GAOhwAUcHX3Ec+3ZHdT1LFqpB+GUQe/JSmdTjrrO
wSBlYObcp4C6jdVjqu2xACDmp/AL5KUMMg17wTtcCMA9rMQ1ofEx6FlLkdAFx2YK
KL+C8PAJyDacQUqXuO4Sr2bp6YgegluNz5+PDJ37dr8hrWd3PtZ9oP2EUjZNwqts
dNAQWwC+GyDdUqgDwkUYaB34IW6NlbUbhbn8USBzgi6VtGJK+HUcVVnV7SK88juD
eYNgRjWBHhYthjqNI7t9gf7RVz/zJGNaY85+JjEyGKeW5p8sfEs6AdjYAZaCJDaD
95YztzODQY7Ap+MR0L6b
-----END CERTIFICATE-----
